target datalayout = "e-m:e-p270:32:32-p271:32:32-p272:64:64-i64:64-i128:128-f80:128-n8:16:32:64-S128"
target triple = "x86_64-pc-linux-gnu"

%struct.CompactAttribute = type { i32, i16, i8, i8, i8, i8, i8, i8, i8 }
%struct.TupleDescData = type { i32, i32, i32, i32, ptr, [0 x %struct.CompactAttribute] }
%struct.HeapTupleData = type { i32, %struct.ItemPointerData, i32, ptr }
%struct.ItemPointerData = type { %struct.BlockIdData, i16 }
%struct.BlockIdData = type { i16, i16 }
%struct.HeapTupleHeaderData = type { %union.anon, %struct.ItemPointerData, i16, i16, i8, [0 x i8] }
%union.anon = type { %struct.HeapTupleFields }
%struct.HeapTupleFields = type { i32, i32, %union.anon.1 }
%union.anon.1 = type { i32 }

; Function Attrs: nounwind uwtable
define dso_local ptr @heap_modify_tuple(ptr noundef %0, ptr noundef %1, ptr noundef %2, ptr noundef %3, ptr noundef %4) #0 {
  %6 = alloca ptr, align 8
  %7 = alloca ptr, align 8
  %8 = alloca ptr, align 8
  %9 = alloca ptr, align 8
  %10 = alloca ptr, align 8
  %11 = alloca i32, align 4
  %12 = alloca i32, align 4
  %13 = alloca ptr, align 8
  %14 = alloca ptr, align 8
  %15 = alloca ptr, align 8
  store ptr %0, ptr %6, align 8
  store ptr %1, ptr %7, align 8
  store ptr %2, ptr %8, align 8
  store ptr %3, ptr %9, align 8
  store ptr %4, ptr %10, align 8
  call void @llvm.lifetime.start.p0(i64 4, ptr %11) #8
  %16 = load ptr, ptr %7, align 8
  %17 = getelementptr inbounds nuw %struct.TupleDescData, ptr %16, i32 0, i32 0
  %18 = load i32, ptr %17, align 8
  store i32 %18, ptr %11, align 4
  call void @llvm.lifetime.start.p0(i64 4, ptr %12) #8
  call void @llvm.lifetime.start.p0(i64 8, ptr %13) #8
  call void @llvm.lifetime.start.p0(i64 8, ptr %14) #8
  call void @llvm.lifetime.start.p0(i64 8, ptr %15) #8
  %19 = load i32, ptr %11, align 4
  %20 = sext i32 %19 to i64
  %21 = mul i64 %20, 8
  %22 = call ptr @palloc(i64 noundef %21)
  store ptr %22, ptr %13, align 8
  %23 = load i32, ptr %11, align 4
  %24 = sext i32 %23 to i64
  %25 = mul i64 %24, 1
  %26 = call ptr @palloc(i64 noundef %25)
  store ptr %26, ptr %14, align 8
  %27 = load ptr, ptr %6, align 8
  %28 = load ptr, ptr %7, align 8
  %29 = load ptr, ptr %13, align 8
  %30 = load ptr, ptr %14, align 8
  call void @heap_deform_tuple(ptr noundef %27, ptr noundef %28, ptr noundef %29, ptr noundef %30)
  store i32 0, ptr %12, align 4
  br label %31

31:                                               ; preds = %64, %5
  %32 = load i32, ptr %12, align 4
  %33 = load i32, ptr %11, align 4
  %34 = icmp slt i32 %32, %33
  br i1 %34, label %35, label %67

35:                                               ; preds = %31
  %36 = load ptr, ptr %10, align 8
  %37 = load i32, ptr %12, align 4
  %38 = sext i32 %37 to i64
  %39 = getelementptr inbounds i8, ptr %36, i64 %38
  %40 = load i8, ptr %39, align 1, !range !4, !noundef !5
  %41 = trunc i8 %40 to i1
  br i1 %41, label %42, label %63

42:                                               ; preds = %35
  %43 = load ptr, ptr %8, align 8
  %44 = load i32, ptr %12, align 4
  %45 = sext i32 %44 to i64
  %46 = getelementptr inbounds i64, ptr %43, i64 %45
  %47 = load i64, ptr %46, align 8
  %48 = load ptr, ptr %13, align 8
  %49 = load i32, ptr %12, align 4
  %50 = sext i32 %49 to i64
  %51 = getelementptr inbounds i64, ptr %48, i64 %50
  store i64 %47, ptr %51, align 8
  %52 = load ptr, ptr %9, align 8
  %53 = load i32, ptr %12, align 4
  %54 = sext i32 %53 to i64
  %55 = getelementptr inbounds i8, ptr %52, i64 %54
  %56 = load i8, ptr %55, align 1, !range !4, !noundef !5
  %57 = trunc i8 %56 to i1
  %58 = load ptr, ptr %14, align 8
  %59 = load i32, ptr %12, align 4
  %60 = sext i32 %59 to i64
  %61 = getelementptr inbounds i8, ptr %58, i64 %60
  %62 = zext i1 %57 to i8
  store i8 %62, ptr %61, align 1
  br label %63

63:                                               ; preds = %42, %35
  br label %64

64:                                               ; preds = %63
  %65 = load i32, ptr %12, align 4
  %66 = add i32 %65, 1
  store i32 %66, ptr %12, align 4
  br label %31, !llvm.loop !17

67:                                               ; preds = %31
  %68 = load ptr, ptr %7, align 8
  %69 = load ptr, ptr %13, align 8
  %70 = load ptr, ptr %14, align 8
  %71 = call ptr @heap_form_tuple(ptr noundef %68, ptr noundef %69, ptr noundef %70)
  store ptr %71, ptr %15, align 8
  %72 = load ptr, ptr %13, align 8
  call void @pfree(ptr noundef %72)
  %73 = load ptr, ptr %14, align 8
  call void @pfree(ptr noundef %73)
  %74 = load ptr, ptr %15, align 8
  %75 = getelementptr inbounds nuw %struct.HeapTupleData, ptr %74, i32 0, i32 3
  %76 = load ptr, ptr %75, align 8
  %77 = getelementptr inbounds nuw %struct.HeapTupleHeaderData, ptr %76, i32 0, i32 1
  %78 = load ptr, ptr %6, align 8
  %79 = getelementptr inbounds nuw %struct.HeapTupleData, ptr %78, i32 0, i32 3
  %80 = load ptr, ptr %79, align 8
  %81 = getelementptr inbounds nuw %struct.HeapTupleHeaderData, ptr %80, i32 0, i32 1
  call void @llvm.memcpy.p0.p0.i64(ptr align 4 %77, ptr align 4 %81, i64 6, i1 false)
  %82 = load ptr, ptr %15, align 8
  %83 = getelementptr inbounds nuw %struct.HeapTupleData, ptr %82, i32 0, i32 1
  %84 = load ptr, ptr %6, align 8
  %85 = getelementptr inbounds nuw %struct.HeapTupleData, ptr %84, i32 0, i32 1
  call void @llvm.memcpy.p0.p0.i64(ptr align 4 %83, ptr align 4 %85, i64 6, i1 false)
  %86 = load ptr, ptr %6, align 8
  %87 = getelementptr inbounds nuw %struct.HeapTupleData, ptr %86, i32 0, i32 2
  %88 = load i32, ptr %87, align 4
  %89 = load ptr, ptr %15, align 8
  %90 = getelementptr inbounds nuw %struct.HeapTupleData, ptr %89, i32 0, i32 2
  store i32 %88, ptr %90, align 4
  %91 = load ptr, ptr %15, align 8
  call void @llvm.lifetime.end.p0(i64 8, ptr %15) #8
  call void @llvm.lifetime.end.p0(i64 8, ptr %14) #8
  call void @llvm.lifetime.end.p0(i64 8, ptr %13) #8
  call void @llvm.lifetime.end.p0(i64 4, ptr %12) #8
  call void @llvm.lifetime.end.p0(i64 4, ptr %11) #8
  ret ptr %91
}