; Function Attrs: nounwind uwtable
define dso_local noundef ptr @heap_modify_tuple(ptr noundef readonly captures(none) %0, ptr noundef captures(none) %1, ptr noundef readonly captures(none) %2, ptr noundef readonly captures(none) %3, ptr noundef readonly captures(none) %4) local_unnamed_addr #0 {
  %6 = load i32, ptr %1, align 8
  %7 = sext i32 %6 to i64
  %8 = shl nsw i64 %7, 3
  %9 = tail call ptr @palloc(i64 noundef %8) #12
  %10 = tail call ptr @palloc(i64 noundef %7) #12
  tail call void @heap_deform_tuple(ptr noundef %0, ptr noundef nonnull %1, ptr noundef %9, ptr noundef %10)
  %11 = icmp sgt i32 %6, 0
  br i1 %11, label %.lr.ph.preheader, label %._crit_edge

.lr.ph.preheader:                                 ; preds = %5
  %wide.trip.count = zext nneg i32 %6 to i64
  br label %.lr.ph

.lr.ph:                                           ; preds = %.lr.ph.preheader, %22
  %indvars.iv = phi i64 [ 0, %.lr.ph.preheader ], [ %indvars.iv.next, %22 ]
  %12 = getelementptr inbounds nuw i8, ptr %4, i64 %indvars.iv
  %13 = load i8, ptr %12, align 1, !range !4, !noundef !5
  %14 = trunc nuw i8 %13 to i1
  br i1 %14, label %15, label %22

15:                                               ; preds = %.lr.ph
  %16 = getelementptr inbounds nuw i64, ptr %2, i64 %indvars.iv
  %17 = load i64, ptr %16, align 8
  %18 = getelementptr inbounds nuw i64, ptr %9, i64 %indvars.iv
  store i64 %17, ptr %18, align 8
  %19 = getelementptr inbounds nuw i8, ptr %3, i64 %indvars.iv
  %20 = load i8, ptr %19, align 1, !range !4, !noundef !5
  %21 = getelementptr inbounds nuw i8, ptr %10, i64 %indvars.iv
  store i8 %20, ptr %21, align 1
  br label %22

22:                                               ; preds = %.lr.ph, %15
  %indvars.iv.next = add nuw nsw i64 %indvars.iv, 1
  %exitcond.not = icmp eq i64 %indvars.iv.next, %wide.trip.count
  br i1 %exitcond.not, label %._crit_edge, label %.lr.ph, !llvm.loop !17

._crit_edge:                                      ; preds = %22, %5
  %23 = tail call ptr @heap_form_tuple(ptr noundef nonnull %1, ptr noundef %9, ptr noundef %10)
  tail call void @pfree(ptr noundef %9) #12
  tail call void @pfree(ptr noundef %10) #12
  %24 = getelementptr inbounds nuw i8, ptr %23, i64 16
  %25 = load ptr, ptr %24, align 8
  %26 = getelementptr inbounds nuw i8, ptr %25, i64 12
  %27 = getelementptr inbounds nuw i8, ptr %0, i64 16
  %28 = load ptr, ptr %27, align 8
  %29 = getelementptr inbounds nuw i8, ptr %28, i64 12
  tail call void @llvm.memcpy.p0.p0.i64(ptr noundef nonnull align 4 dereferenceable(6) %26, ptr noundef nonnull align 4 dereferenceable(6) %29, i64 6, i1 false)
  %30 = getelementptr inbounds nuw i8, ptr %23, i64 4
  %31 = getelementptr inbounds nuw i8, ptr %0, i64 4
  tail call void @llvm.memcpy.p0.p0.i64(ptr noundef nonnull align 4 dereferenceable(6) %30, ptr noundef nonnull align 4 dereferenceable(6) %31, i64 6, i1 false)
  %32 = getelementptr inbounds nuw i8, ptr %0, i64 12
  %33 = load i32, ptr %32, align 4
  %34 = getelementptr inbounds nuw i8, ptr %23, i64 12
  store i32 %33, ptr %34, align 4
  ret ptr %23
}